Certificate:
    Data:
        Version: 3 (0x2)
        Serial Number: 1982450980 (0x7629cd24)
        Signature Algorithm: sha256WithRSAEncryption
        Issuer: DC=tech, DC=u-system, C=RU, O=USystemDemo, CN=ROOT CA
        Validity
            Not Before: Oct 15 13:08:17 2021 GMT
            Not After : Oct 15 13:08:17 2031 GMT
        Subject: DC=tech, DC=u-system, C=RU, O=USystemDemo, CN=ROOT CA
        Subject Public Key Info:
            Public Key Algorithm: rsaEncryption
                RSA Public-Key: (4096 bit)
                Modulus:
                    00:95:61:e9:f3:ef:aa:70:1a:66:76:55:77:d8:e0:
                    0e:48:4f:c3:1e:b8:d6:0b:ce:f7:a8:52:45:d5:7d:
                    b2:98:47:82:63:34:a1:b0:1d:98:ff:5a:13:91:f1:
                    f1:a9:2a:8b:b8:13:b2:2c:2c:a2:5c:90:7f:47:f0:
                    fe:c9:71:ee:3a:6b:05:37:5b:35:b5:ab:ce:fd:a9:
                    75:6a:90:18:b8:03:74:7d:28:57:dd:a3:77:cd:14:
                    31:04:6c:29:26:6f:ed:8e:8a:14:4c:d1:82:1e:95:
                    d1:92:db:81:a6:ae:ac:8c:d2:57:a2:b9:c9:5d:b5:
                    77:4b:f4:19:93:35:85:7b:44:6f:c9:64:3d:83:a9:
                    a4:01:c6:7f:a4:f2:d8:02:d7:cf:64:5f:58:a8:d4:
                    30:f9:9a:e6:c0:05:00:06:1d:01:fe:83:07:73:1c:
                    a7:4e:34:92:d9:01:c2:ce:0b:12:a2:1f:f7:2b:f4:
                    14:72:3f:d4:78:78:02:17:d0:07:62:a2:42:48:c5:
                    d2:0d:ed:c4:49:a0:10:86:90:ff:c4:be:a8:3b:8c:
                    22:a6:44:dd:2a:18:e9:f1:b6:8d:57:90:4a:8f:66:
                    2b:a6:3a:d9:12:81:a4:71:d2:52:f0:60:6d:3d:f7:
                    e2:d0:b1:78:ba:27:9a:bd:6e:95:d1:3f:2d:4c:4e:
                    3f:ba:83:c5:99:34:8d:d1:28:4c:0a:0a:f9:d7:e9:
                    82:14:c2:7b:e4:db:e9:bd:f7:f6:fd:1d:03:e9:1c:
                    a5:64:5e:f9:38:8c:d8:cf:14:9e:52:9e:93:18:08:
                    da:f6:e8:04:71:37:e0:b8:74:61:e8:3a:25:5e:3e:
                    4f:1d:28:fd:5e:d8:8c:d9:ea:fc:4a:2a:2d:e4:f9:
                    8e:14:78:9b:eb:df:c0:b7:23:29:b8:86:e4:33:13:
                    b9:49:d0:8b:21:d7:20:de:e7:43:d3:27:e0:2a:72:
                    5f:32:48:10:10:0d:cc:ba:a0:18:bf:77:03:74:e3:
                    21:4d:da:2f:c8:7f:f5:7d:9c:c6:36:2a:33:37:61:
                    d3:dc:57:84:d9:c7:ae:b1:ca:6c:54:78:73:34:16:
                    90:bd:42:ca:a0:bb:69:52:6c:c7:48:ba:09:7a:51:
                    38:bf:c7:bc:67:21:2b:26:b3:9e:46:a7:81:97:57:
                    ba:bf:2f:ca:04:cb:91:93:3c:76:ca:1e:8c:ee:32:
                    c3:b3:46:d3:fc:ea:45:e1:d1:fd:d0:fd:22:18:57:
                    9c:72:01:bf:e7:15:8e:5c:85:fd:bb:17:fb:17:27:
                    6b:02:2d:08:f6:3f:47:a6:f4:9f:9c:17:d7:cd:51:
                    27:b1:49:3e:d9:49:84:82:9b:8c:42:92:4b:5d:24:
                    05:2c:17
                Exponent: 65537 (0x10001)
        X509v3 extensions:
            X509v3 Key Usage: critical
                Certificate Sign, CRL Sign
            X509v3 Basic Constraints: critical
                CA:TRUE
            X509v3 Subject Key Identifier: 
                AB:5F:19:EF:33:DA:C6:8C:AC:34:64:AF:1C:1C:A6:27:1B:DD:7A:97
            X509v3 Authority Key Identifier: 
                keyid:AB:5F:19:EF:33:DA:C6:8C:AC:34:64:AF:1C:1C:A6:27:1B:DD:7A:97

    Signature Algorithm: sha256WithRSAEncryption
         89:95:b1:cd:92:fc:82:ca:7e:c5:5e:0f:a8:65:a6:df:7e:86:
         ca:5d:1a:72:33:b5:db:c9:0d:a4:5c:1b:fa:e8:91:0f:28:ff:
         c9:f9:0a:67:5b:43:ad:81:e4:6e:e2:b2:08:bf:ca:98:2b:46:
         ce:32:ce:60:66:d0:1e:9d:86:c2:a6:fd:e5:9b:30:9a:6d:0f:
         6e:4f:c3:03:e9:3a:ad:72:d7:bb:81:2d:50:95:0b:60:d4:a3:
         8f:68:a2:85:44:a7:20:02:79:b7:0a:05:be:c7:34:4d:5e:96:
         dd:17:a4:05:cb:b2:f4:ea:0d:4e:f1:e1:bf:a2:3d:49:aa:8a:
         f9:11:c7:1a:0d:d4:81:9a:32:28:e7:9c:fa:0c:dd:05:8a:ca:
         ff:c2:98:d0:9c:37:b2:82:e7:04:88:8a:aa:ab:e5:52:fa:8a:
         46:02:36:be:1a:b4:70:bf:e2:62:58:45:31:89:1d:10:58:f3:
         19:6e:08:a9:71:4e:c5:51:29:7f:49:cc:df:4b:fa:db:90:7d:
         da:d9:81:9f:fd:9f:6e:c4:9f:cc:09:8e:51:62:5d:33:f1:ae:
         8a:f3:df:ba:61:a4:a8:e3:b5:6d:b0:fd:0d:d1:b1:41:58:01:
         55:86:90:41:53:1a:cf:86:db:35:8d:f8:cb:8e:07:ae:7e:1c:
         d4:ef:35:80:59:f5:23:20:c2:ae:00:c9:24:a4:06:fc:81:43:
         a3:14:b4:c5:6f:2c:c3:07:52:33:e4:cf:f0:63:52:92:7e:d9:
         5c:5f:c3:66:d9:07:52:c8:f9:e6:07:b2:16:8a:0e:87:5f:83:
         8d:c3:6f:4c:5d:ef:2c:3a:fb:22:b1:4a:da:89:19:5c:d7:b4:
         f9:0a:ba:21:06:5c:d2:f2:c1:1b:68:85:46:ff:93:67:9b:e0:
         1b:f1:35:79:c8:4f:e5:da:c8:a0:d8:89:09:47:51:42:52:f9:
         9b:3d:26:50:ae:26:12:7d:6b:71:d0:37:9b:55:eb:8d:24:9e:
         65:21:59:31:5a:2b:ae:d3:0e:c8:c1:32:80:93:53:64:2a:d2:
         d1:0e:a2:35:b6:37:a9:52:27:fc:84:02:c5:bf:41:f7:27:60:
         00:63:6d:6b:8e:7e:43:5c:81:24:c1:e2:a2:0b:fa:aa:7d:bf:
         71:1f:68:03:8b:4b:49:61:c1:c5:b5:59:09:5f:26:48:64:71:
         ca:07:ac:aa:50:36:b3:d6:e1:8a:89:9a:69:90:d3:82:c1:a9:
         13:9a:ee:1e:86:5c:f9:ba:5f:bc:71:bf:7b:fc:2b:7f:ed:06:
         83:3b:f9:a5:6f:b4:bb:bb:71:1e:4c:be:17:20:64:57:fb:a9:
         76:e5:c9:55:89:6f:50:30
-----BEGIN CERTIFICATE-----
MIIFqzCCA5OgAwIBAgIEdinNJDANBgkqhkiG9w0BAQsFADBlMRQwEgYKCZImiZPy
LGQBGRYEdGVjaDEYMBYGCgmSJomT8ixkARkWCHUtc3lzdGVtMQswCQYDVQQGEwJS
VTEUMBIGA1UECgwLVVN5c3RlbURlbW8xEDAOBgNVBAMMB1JPT1QgQ0EwHhcNMjEx
MDE1MTMwODE3WhcNMzExMDE1MTMwODE3WjBlMRQwEgYKCZImiZPyLGQBGRYEdGVj
aDEYMBYGCgmSJomT8ixkARkWCHUtc3lzdGVtMQswCQYDVQQGEwJSVTEUMBIGA1UE
CgwLVVN5c3RlbURlbW8xEDAOBgNVBAMMB1JPT1QgQ0EwggIiMA0GCSqGSIb3DQEB
AQUAA4ICDwAwggIKAoICAQCVYenz76pwGmZ2VXfY4A5IT8MeuNYLzveoUkXVfbKY
R4JjNKGwHZj/WhOR8fGpKou4E7IsLKJckH9H8P7Jce46awU3WzW1q879qXVqkBi4
A3R9KFfdo3fNFDEEbCkmb+2OihRM0YIeldGS24GmrqyM0leiucldtXdL9BmTNYV7
RG/JZD2DqaQBxn+k8tgC189kX1io1DD5mubABQAGHQH+gwdzHKdONJLZAcLOCxKi
H/cr9BRyP9R4eAIX0AdiokJIxdIN7cRJoBCGkP/Evqg7jCKmRN0qGOnxto1XkEqP
ZiumOtkSgaRx0lLwYG099+LQsXi6J5q9bpXRPy1MTj+6g8WZNI3RKEwKCvnX6YIU
wnvk2+m99/b9HQPpHKVkXvk4jNjPFJ5SnpMYCNr26ARxN+C4dGHoOiVePk8dKP1e
2IzZ6vxKKi3k+Y4UeJvr38C3Iym4huQzE7lJ0Ish1yDe50PTJ+Aqcl8ySBAQDcy6
oBi/dwN04yFN2i/If/V9nMY2KjM3YdPcV4TZx66xymxUeHM0FpC9Qsqgu2lSbMdI
ugl6UTi/x7xnISsms55Gp4GXV7q/L8oEy5GTPHbKHozuMsOzRtP86kXh0f3Q/SIY
V5xyAb/nFY5chf27F/sXJ2sCLQj2P0em9J+cF9fNUSexST7ZSYSCm4xCkktdJAUs
FwIDAQABo2MwYTAOBgNVHQ8BAf8EBAMCAQYwDwYDVR0TAQH/BAUwAwEB/zAdBgNV
HQ4EFgQUq18Z7zPaxoysNGSvHBymJxvdepcwHwYDVR0jBBgwFoAUq18Z7zPaxoys
NGSvHBymJxvdepcwDQYJKoZIhvcNAQELBQADggIBAImVsc2S/ILKfsVeD6hlpt9+
hspdGnIztdvJDaRcG/rokQ8o/8n5CmdbQ62B5G7isgi/ypgrRs4yzmBm0B6dhsKm
/eWbMJptD25PwwPpOq1y17uBLVCVC2DUo49oooVEpyACebcKBb7HNE1elt0XpAXL
svTqDU7x4b+iPUmqivkRxxoN1IGaMijnnPoM3QWKyv/CmNCcN7KC5wSIiqqr5VL6
ikYCNr4atHC/4mJYRTGJHRBY8xluCKlxTsVRKX9JzN9L+tuQfdrZgZ/9n27En8wJ
jlFiXTPxrorz37phpKjjtW2w/Q3RsUFYAVWGkEFTGs+G2zWN+MuOB65+HNTvNYBZ
9SMgwq4AySSkBvyBQ6MUtMVvLMMHUjPkz/BjUpJ+2Vxfw2bZB1LI+eYHshaKDodf
g43Db0xd7yw6+yKxStqJGVzXtPkKuiEGXNLywRtohUb/k2eb4BvxNXnIT+XayKDY
iQlHUUJS+Zs9JlCuJhJ9a3HQN5tV640knmUhWTFaK67TDsjBMoCTU2Qq0tEOojW2
N6lSJ/yEAsW/QfcnYABjbWuOfkNcgSTB4qIL+qp9v3EfaAOLS0lhwcW1WQlfJkhk
ccoHrKpQNrPW4YqJmmmQ04LBqROa7h6GXPm6X7xxv3v8K3/tBoM7+aVvtLu7cR5M
vhcgZFf7qXblyVWJb1Aw
-----END CERTIFICATE-----
